target datalayout = "e-m:e-p270:32:32-p271:32:32-p272:64:64-i64:64-i128:128-f80:128-n8:16:32:64-S128"
target triple = "x86_64-pc-linux-gnu"

%"class.std::vector.89" = type { %"struct.std::_Vector_base.90" }
%"struct.std::_Vector_base.90" = type { %"struct.std::_Vector_base<unsigned long, std::allocator<unsigned long>>::_Vector_impl" }
%"struct.std::_Vector_base<unsigned long, std::allocator<unsigned long>>::_Vector_impl" = type { %"struct.std::_Vector_base<unsigned long, std::allocator<unsigned long>>::_Vector_impl_data" }
%"struct.std::_Vector_base<unsigned long, std::allocator<unsigned long>>::_Vector_impl_data" = type { ptr, ptr, ptr }
%"class.xgboost::linalg::Tensor" = type <{ %"class.xgboost::HostDeviceVector", [2 x i64], i8, [7 x i8] }>
%"class.xgboost::HostDeviceVector" = type { ptr }
%"class.xgboost::MetaInfo" = type <{ i64, i64, i64, %"class.xgboost::linalg::Tensor", i32, [4 x i8], %"class.std::vector.78", %"class.xgboost::HostDeviceVector", %"class.xgboost::linalg::Tensor", %"class.xgboost::HostDeviceVector", %"class.xgboost::HostDeviceVector", %"class.std::vector.83", %"class.std::vector.83", %"class.xgboost::HostDeviceVector.88", %"class.xgboost::HostDeviceVector", %"class.std::vector.89", i8, [7 x i8] }>
%"class.std::vector.78" = type { %"struct.std::_Vector_base.79" }
%"struct.std::_Vector_base.79" = type { %"struct.std::_Vector_base<unsigned int, std::allocator<unsigned int>>::_Vector_impl" }
%"struct.std::_Vector_base<unsigned int, std::allocator<unsigned int>>::_Vector_impl" = type { %"struct.std::_Vector_base<unsigned int, std::allocator<unsigned int>>::_Vector_impl_data" }
%"struct.std::_Vector_base<unsigned int, std::allocator<unsigned int>>::_Vector_impl_data" = type { ptr, ptr, ptr }
%"class.std::vector.83" = type { %"struct.std::_Vector_base.84" }
%"struct.std::_Vector_base.84" = type { %"struct.std::_Vector_base<std::__cxx11::basic_string<char>, std::allocator<std::__cxx11::basic_string<char>>>::_Vector_impl" }
%"struct.std::_Vector_base<std::__cxx11::basic_string<char>, std::allocator<std::__cxx11::basic_string<char>>>::_Vector_impl" = type { %"struct.std::_Vector_base<std::__cxx11::basic_string<char>, std::allocator<std::__cxx11::basic_string<char>>>::_Vector_impl_data" }
%"struct.std::_Vector_base<std::__cxx11::basic_string<char>, std::allocator<std::__cxx11::basic_string<char>>>::_Vector_impl_data" = type { ptr, ptr, ptr }
%"class.xgboost::HostDeviceVector.88" = type { ptr }

; Function Attrs: mustprogress uwtable
define void @_ZNK7xgboost8MetaInfo4CopyEv(ptr dead_on_unwind noalias writable sret(%"class.xgboost::MetaInfo") align 8 %0, ptr noundef nonnull align 8 dereferenceable(233) %1) #5 align 2 personality ptr @__gxx_personality_v0 {
  %3 = alloca ptr, align 8
  %4 = alloca ptr, align 8
  %5 = alloca i1, align 1
  %6 = alloca ptr, align 8
  %7 = alloca i32, align 4
  store ptr %0, ptr %3, align 8
  store ptr %1, ptr %4, align 8, !tbaa !287
  %8 = load ptr, ptr %4, align 8
  store i1 false, ptr %5, align 1
  call void @_ZN7xgboost8MetaInfoC2Ev(ptr noundef nonnull align 8 dereferenceable(233) %0)
  invoke void @_ZN7xgboost8MetaInfo6ExtendERKS0_bb(ptr noundef nonnull align 8 dereferenceable(233) %0, ptr noundef nonnull align 8 dereferenceable(233) %8, i1 noundef zeroext true, i1 noundef zeroext false)
          to label %9 unwind label %11

9:                                                ; preds = %2
  store i1 true, ptr %5, align 1
  %10 = load i1, ptr %5, align 1
  br i1 %10, label %16, label %15

11:                                               ; preds = %2
  %12 = landingpad { ptr, i32 }
          cleanup
  %13 = extractvalue { ptr, i32 } %12, 0
  store ptr %13, ptr %6, align 8
  %14 = extractvalue { ptr, i32 } %12, 1
  store i32 %14, ptr %7, align 4
  call void @_ZN7xgboost8MetaInfoD2Ev(ptr noundef nonnull align 8 dereferenceable(233) %0) #3
  br label %17

15:                                               ; preds = %9
  call void @_ZN7xgboost8MetaInfoD2Ev(ptr noundef nonnull align 8 dereferenceable(233) %0) #3
  br label %16

16:                                               ; preds = %15, %9
  ret void

17:                                               ; preds = %11
  %18 = load ptr, ptr %6, align 8
  %19 = load i32, ptr %7, align 4
  %20 = insertvalue { ptr, i32 } poison, ptr %18, 0
  %21 = insertvalue { ptr, i32 } %20, i32 %19, 1
  resume { ptr, i32 } %21
}