; Function Attrs: mustprogress uwtable
define void @_ZNK7xgboost8MetaInfo4CopyEv(ptr dead_on_unwind noalias nonnull writable sret(%"class.xgboost::MetaInfo") align 8 %0, ptr noundef nonnull align 8 dereferenceable(233) %1) local_unnamed_addr #5 align 2 personality ptr @__gxx_personality_v0 {
  tail call void @_ZN7xgboost8MetaInfoC2Ev(ptr noundef nonnull align 8 dereferenceable(233) %0)
  invoke void @_ZN7xgboost8MetaInfo6ExtendERKS0_bb(ptr noundef nonnull align 8 dereferenceable(233) %0, ptr noundef nonnull align 8 dereferenceable(233) %1, i1 noundef zeroext true, i1 noundef zeroext false)
          to label %5 unwind label %3

3:                                                ; preds = %2
  %4 = landingpad { ptr, i32 }
          cleanup
  tail call void @_ZN7xgboost8MetaInfoD2Ev(ptr noundef nonnull align 8 dereferenceable(233) %0) #21
  resume { ptr, i32 } %4

5:                                                ; preds = %2
  ret void
}